((dp1
S'S-Arg2'
p2
(lp3
I2
asS'I-Connective'
p4
(lp5
I3
asS'S-Arg1'
p6
(lp7
I1
asS'I-Arg1'
p8
(lp9
I1
asS'I-Arg2'
p10
(lp11
I2
asS'O'
(lp12
I0
asS'E-Arg1'
p13
(lp14
I1
asS'E-Arg2'
p15
(lp16
I2
asS'B-Arg1'
p17
(lp18
I1
asS'B-Arg2'
p19
(lp20
I2
asS'E-Connective'
p21
(lp22
I3
asS'S-Connective'
p23
(lp24
I3
asS'B-Connective'
p25
(lp26
I3
asI4
t.